target datalayout = "e-m:e-p270:32:32-p271:32:32-p272:64:64-i64:64-i128:128-f80:128-n8:16:32:64-S128"
target triple = "x86_64-pc-linux-gnu"

@ff_aac_ac_hash_m = external constant [742 x i32], align 16
@ff_aac_ac_lookup_m = external constant [742 x i8], align 16

; Function Attrs: nounwind uwtable
define i32 @ff_aac_ac_get_pk(i32 noundef %0) #0 {
  %2 = alloca i32, align 4
  %3 = alloca i32, align 4
  %4 = alloca i32, align 4
  %5 = alloca i32, align 4
  %6 = alloca i32, align 4
  %7 = alloca i32, align 4
  %8 = alloca i32, align 4
  store i32 %0, ptr %3, align 4, !tbaa !9
  call void @llvm.lifetime.start.p0(i64 4, ptr %4) #6
  store i32 -1, ptr %4, align 4, !tbaa !9
  call void @llvm.lifetime.start.p0(i64 4, ptr %5) #6
  call void @llvm.lifetime.start.p0(i64 4, ptr %6) #6
  call void @llvm.lifetime.start.p0(i64 4, ptr %7) #6
  store i32 741, ptr %7, align 4, !tbaa !9
  br label %9

9:                                                ; preds = %42, %1
  %10 = load i32, ptr %7, align 4, !tbaa !9
  %11 = load i32, ptr %4, align 4, !tbaa !9
  %12 = sub nsw i32 %10, %11
  %13 = icmp sgt i32 %12, 1
  br i1 %13, label %14, label %43

14:                                               ; preds = %9
  %15 = load i32, ptr %4, align 4, !tbaa !9
  %16 = load i32, ptr %7, align 4, !tbaa !9
  %17 = load i32, ptr %4, align 4, !tbaa !9
  %18 = sub nsw i32 %16, %17
  %19 = sdiv i32 %18, 2
  %20 = add nsw i32 %15, %19
  store i32 %20, ptr %5, align 4, !tbaa !9
  %21 = load i32, ptr %5, align 4, !tbaa !9
  %22 = sext i32 %21 to i64
  %23 = getelementptr inbounds [742 x i32], ptr @ff_aac_ac_hash_m, i64 0, i64 %22
  %24 = load i32, ptr %23, align 4, !tbaa !9
  store i32 %24, ptr %6, align 4, !tbaa !9
  %25 = load i32, ptr %3, align 4, !tbaa !9
  %26 = load i32, ptr %6, align 4, !tbaa !9
  %27 = ashr i32 %26, 8
  %28 = icmp ult i32 %25, %27
  br i1 %28, label %29, label %31

29:                                               ; preds = %14
  %30 = load i32, ptr %5, align 4, !tbaa !9
  store i32 %30, ptr %7, align 4, !tbaa !9
  br label %42

31:                                               ; preds = %14
  %32 = load i32, ptr %3, align 4, !tbaa !9
  %33 = load i32, ptr %6, align 4, !tbaa !9
  %34 = ashr i32 %33, 8
  %35 = icmp ugt i32 %32, %34
  br i1 %35, label %36, label %38

36:                                               ; preds = %31
  %37 = load i32, ptr %5, align 4, !tbaa !9
  store i32 %37, ptr %4, align 4, !tbaa !9
  br label %41

38:                                               ; preds = %31
  %39 = load i32, ptr %6, align 4, !tbaa !9
  %40 = and i32 %39, 255
  store i32 %40, ptr %2, align 4
  store i32 1, ptr %8, align 4
  br label %49

41:                                               ; preds = %36
  br label %42

42:                                               ; preds = %41, %29
  br label %9, !llvm.loop !21

43:                                               ; preds = %9
  %44 = load i32, ptr %7, align 4, !tbaa !9
  %45 = sext i32 %44 to i64
  %46 = getelementptr inbounds [742 x i8], ptr @ff_aac_ac_lookup_m, i64 0, i64 %45
  %47 = load i8, ptr %46, align 1, !tbaa !16
  %48 = zext i8 %47 to i32
  store i32 %48, ptr %2, align 4
  store i32 1, ptr %8, align 4
  br label %49

49:                                               ; preds = %43, %38
  call void @llvm.lifetime.end.p0(i64 4, ptr %7) #6
  call void @llvm.lifetime.end.p0(i64 4, ptr %6) #6
  call void @llvm.lifetime.end.p0(i64 4, ptr %5) #6
  call void @llvm.lifetime.end.p0(i64 4, ptr %4) #6
  %50 = load i32, ptr %2, align 4
  ret i32 %50
}