; Function Attrs: nofree norecurse nosync nounwind memory(none) uwtable
define range(i32 0, 256) i32 @ff_aac_ac_get_pk(i32 noundef %0) local_unnamed_addr #5 {
  br label %2

2:                                                ; preds = %1, %15
  %3 = phi i32 [ 742, %1 ], [ %16, %15 ]
  %.023 = phi i32 [ 741, %1 ], [ %.1, %15 ]
  %.01622 = phi i32 [ -1, %1 ], [ %.117, %15 ]
  %4 = lshr i32 %3, 1
  %5 = add nsw i32 %4, %.01622
  %6 = sext i32 %5 to i64
  %7 = getelementptr inbounds [742 x i32], ptr @ff_aac_ac_hash_m, i64 0, i64 %6
  %8 = load i32, ptr %7, align 4, !tbaa !14
  %9 = ashr i32 %8, 8
  %10 = icmp ult i32 %0, %9
  br i1 %10, label %15, label %11

11:                                               ; preds = %2
  %12 = icmp ugt i32 %0, %9
  br i1 %12, label %15, label %13

13:                                               ; preds = %11
  %14 = and i32 %8, 255
  br label %23

15:                                               ; preds = %11, %2
  %.117 = phi i32 [ %.01622, %2 ], [ %5, %11 ]
  %.1 = phi i32 [ %5, %2 ], [ %.023, %11 ]
  %16 = sub nsw i32 %.1, %.117
  %17 = icmp sgt i32 %16, 1
  br i1 %17, label %2, label %18, !llvm.loop !15

18:                                               ; preds = %15
  %19 = sext i32 %.1 to i64
  %20 = getelementptr inbounds [742 x i8], ptr @ff_aac_ac_lookup_m, i64 0, i64 %19
  %21 = load i8, ptr %20, align 1, !tbaa !10
  %22 = zext i8 %21 to i32
  br label %23

23:                                               ; preds = %18, %13
  %.015 = phi i32 [ %14, %13 ], [ %22, %18 ]
  ret i32 %.015
}